target datalayout = "e-m:e-p270:32:32-p271:32:32-p272:64:64-i64:64-i128:128-f80:128-n8:16:32:64-S128"
target triple = "x86_64-pc-linux-gnu"

%struct.darktable_t = type { %struct.dt_codepath_t, i32, i32, ptr, ptr, ptr, ptr, ptr, ptr, ptr, ptr, ptr, ptr, ptr, ptr, ptr, ptr, ptr, ptr, ptr, ptr, ptr, ptr, ptr, ptr, ptr, ptr, ptr, ptr, ptr, [64 x %struct.dt_pthread_mutex_t], %struct.dt_pthread_mutex_t, %struct.dt_pthread_mutex_t, %struct.dt_pthread_mutex_t, %struct.dt_pthread_mutex_t, %struct.dt_pthread_mutex_t, ptr, ptr, ptr, ptr, ptr, ptr, ptr, ptr, ptr, ptr, ptr, ptr, ptr, %struct.dt_lua_state_t, ptr, double, ptr, i32, [47 x i32], i32, i32, ptr, ptr, %struct.dt_sys_resources_t, %struct.dt_backthumb_t, %struct.dt_gimp_t }
%struct.dt_codepath_t = type { i8, [3 x i8] }
%struct.dt_pthread_mutex_t = type { %union.pthread_mutex_t }
%union.pthread_mutex_t = type { %struct.__pthread_mutex_s }
%struct.__pthread_mutex_s = type { i32, i32, i32, i32, i32, i16, i16, %struct.__pthread_internal_list }
%struct.__pthread_internal_list = type { ptr, ptr }
%struct.dt_lua_state_t = type { i32 }
%struct.dt_sys_resources_t = type { i64, i64, ptr, ptr, i32 }
%struct.dt_backthumb_t = type { double, double, i32, i32, i32, i32 }
%struct.dt_gimp_t = type { i32, ptr, ptr, i32, i32 }
%struct.dt_masks_form_t = type { ptr, i32, ptr, [2 x float], [128 x i8], i32, i32 }
%struct._GList = type { ptr, ptr, ptr }
%struct.dt_masks_point_group_t = type { i32, i32, i32, float }
%struct.dt_masks_functions_t = type { i32, ptr, ptr, ptr, ptr, ptr, ptr, ptr, ptr, ptr, ptr, ptr, ptr, ptr, ptr, ptr, ptr, ptr, ptr, ptr }

@darktable = external global %struct.darktable_t, align 8

; Function Attrs: nounwind uwtable
define void @dt_group_events_post_expose(ptr noundef %0, float noundef %1, ptr noundef %2, ptr noundef %3) #0 {
  %5 = alloca ptr, align 8
  %6 = alloca float, align 4
  %7 = alloca ptr, align 8
  %8 = alloca ptr, align 8
  %9 = alloca i32, align 4
  %10 = alloca ptr, align 8
  %11 = alloca i32, align 4
  %12 = alloca ptr, align 8
  %13 = alloca ptr, align 8
  store ptr %0, ptr %5, align 8, !tbaa !6
  store float %1, ptr %6, align 4, !tbaa !11
  store ptr %2, ptr %7, align 8, !tbaa !13
  store ptr %3, ptr %8, align 8, !tbaa !15
  call void @llvm.lifetime.start.p0(i64 4, ptr %9) #10
  store i32 0, ptr %9, align 4, !tbaa !17
  call void @llvm.lifetime.start.p0(i64 8, ptr %10) #10
  %14 = load ptr, ptr %7, align 8, !tbaa !13
  %15 = getelementptr inbounds nuw %struct.dt_masks_form_t, ptr %14, i32 0, i32 0
  %16 = load ptr, ptr %15, align 8, !tbaa !19
  store ptr %16, ptr %10, align 8, !tbaa !23
  br label %17

17:                                               ; preds = %66, %4
  %18 = load ptr, ptr %10, align 8, !tbaa !23
  %19 = icmp ne ptr %18, null
  br i1 %19, label %21, label %20

20:                                               ; preds = %17
  store i32 2, ptr %11, align 4
  br label %68

21:                                               ; preds = %17
  call void @llvm.lifetime.start.p0(i64 8, ptr %12) #10
  %22 = load ptr, ptr %10, align 8, !tbaa !23
  %23 = getelementptr inbounds nuw %struct._GList, ptr %22, i32 0, i32 0
  %24 = load ptr, ptr %23, align 8, !tbaa !24
  store ptr %24, ptr %12, align 8, !tbaa !26
  call void @llvm.lifetime.start.p0(i64 8, ptr %13) #10
  %25 = load ptr, ptr getelementptr inbounds nuw (%struct.darktable_t, ptr @darktable, i32 0, i32 9), align 8, !tbaa !28
  %26 = load ptr, ptr %12, align 8, !tbaa !26
  %27 = getelementptr inbounds nuw %struct.dt_masks_point_group_t, ptr %26, i32 0, i32 0
  %28 = load i32, ptr %27, align 4, !tbaa !65
  %29 = call ptr @dt_masks_get_from_id(ptr noundef %25, i32 noundef %28)
  store ptr %29, ptr %13, align 8, !tbaa !13
  %30 = load ptr, ptr %13, align 8, !tbaa !13
  %31 = icmp ne ptr %30, null
  br i1 %31, label %33, label %32

32:                                               ; preds = %21
  store i32 1, ptr %11, align 4
  br label %55

33:                                               ; preds = %21
  %34 = load ptr, ptr %13, align 8, !tbaa !13
  %35 = getelementptr inbounds nuw %struct.dt_masks_form_t, ptr %34, i32 0, i32 2
  %36 = load ptr, ptr %35, align 8, !tbaa !67
  %37 = icmp ne ptr %36, null
  br i1 %37, label %38, label %52

38:                                               ; preds = %33
  %39 = load ptr, ptr %13, align 8, !tbaa !13
  %40 = getelementptr inbounds nuw %struct.dt_masks_form_t, ptr %39, i32 0, i32 2
  %41 = load ptr, ptr %40, align 8, !tbaa !67
  %42 = getelementptr inbounds nuw %struct.dt_masks_functions_t, ptr %41, i32 0, i32 19
  %43 = load ptr, ptr %42, align 8, !tbaa !68
  %44 = load ptr, ptr %5, align 8, !tbaa !6
  %45 = load float, ptr %6, align 4, !tbaa !11
  %46 = load ptr, ptr %8, align 8, !tbaa !15
  %47 = load i32, ptr %9, align 4, !tbaa !17
  %48 = load ptr, ptr %13, align 8, !tbaa !13
  %49 = getelementptr inbounds nuw %struct.dt_masks_form_t, ptr %48, i32 0, i32 0
  %50 = load ptr, ptr %49, align 8, !tbaa !19
  %51 = call i32 @g_list_length(ptr noundef %50)
  call void %43(ptr noundef %44, float noundef %45, ptr noundef %46, i32 noundef %47, i32 noundef %51)
  br label %52

52:                                               ; preds = %38, %33
  %53 = load i32, ptr %9, align 4, !tbaa !17
  %54 = add nsw i32 %53, 1
  store i32 %54, ptr %9, align 4, !tbaa !17
  store i32 0, ptr %11, align 4
  br label %55

55:                                               ; preds = %52, %32
  call void @llvm.lifetime.end.p0(i64 8, ptr %13) #10
  call void @llvm.lifetime.end.p0(i64 8, ptr %12) #10
  %56 = load i32, ptr %11, align 4
  switch i32 %56, label %68 [
    i32 0, label %57
  ]

57:                                               ; preds = %55
  br label %58

58:                                               ; preds = %57
  %59 = load ptr, ptr %10, align 8, !tbaa !23
  %60 = icmp ne ptr %59, null
  br i1 %60, label %61, label %65

61:                                               ; preds = %58
  %62 = load ptr, ptr %10, align 8, !tbaa !23
  %63 = getelementptr inbounds nuw %struct._GList, ptr %62, i32 0, i32 1
  %64 = load ptr, ptr %63, align 8, !tbaa !70
  br label %66

65:                                               ; preds = %58
  br label %66

66:                                               ; preds = %65, %61
  %67 = phi ptr [ %64, %61 ], [ null, %65 ]
  store ptr %67, ptr %10, align 8, !tbaa !23
  br label %17

68:                                               ; preds = %55, %20
  call void @llvm.lifetime.end.p0(i64 8, ptr %10) #10
  %69 = load i32, ptr %11, align 4
  switch i32 %69, label %71 [
    i32 2, label %70
  ]

70:                                               ; preds = %68
  store i32 0, ptr %11, align 4
  br label %71

71:                                               ; preds = %70, %68
  call void @llvm.lifetime.end.p0(i64 4, ptr %9) #10
  %72 = load i32, ptr %11, align 4
  switch i32 %72, label %74 [
    i32 0, label %73
    i32 1, label %73
  ]

73:                                               ; preds = %71, %71
  ret void

74:                                               ; preds = %71
  unreachable
}